target datalayout = "e-m:e-p270:32:32-p271:32:32-p272:64:64-i64:64-i128:128-f80:128-n8:16:32:64-S128"
target triple = "x86_64-pc-linux-gnu"

%struct.RelationData = type { %struct.RelFileLocator, ptr, i32, i32, i8, i8, i8, i8, i8, i32, i32, i32, i32, ptr, ptr, i32, %struct.LockInfoData, ptr, ptr, ptr, ptr, ptr, i8, ptr, ptr, ptr, ptr, ptr, ptr, i32, ptr, i8, ptr, ptr, i32, i8, i32, ptr, i8, ptr, ptr, ptr, ptr, ptr, ptr, ptr, i32, ptr, ptr, ptr, ptr, ptr, ptr, ptr, ptr, ptr, ptr, ptr, ptr, ptr, ptr, ptr, ptr, ptr, ptr, ptr, i32, i8, ptr }
%struct.RelFileLocator = type { i32, i32, i32 }
%struct.LockInfoData = type { %struct.LockRelId }
%struct.LockRelId = type { i32, i32 }
%struct.nameData = type { [64 x i8] }
%struct.FormData_pg_class = type { i32, %struct.nameData, i32, i32, i32, i32, i32, i32, i32, i32, float, i32, i32, i8, i8, i8, i8, i16, i16, i8, i8, i8, i8, i8, i8, i8, i8, i32, i32, i32 }
%struct.PageHeaderData = type { %struct.PageXLogRecPtr, i16, i16, i16, i16, i16, i16, i32, [0 x %struct.ItemIdData] }
%struct.PageXLogRecPtr = type { i32, i32 }
%struct.ItemIdData = type { i32 }
%struct.GinMetaPageData = type { i32, i32, i32, i32, i64, i32, i32, i32, i64, i32 }
%struct.GinStatsData = type { i32, i32, i32, i32, i64, i32 }
%struct.ginxlogUpdateMeta = type { %struct.RelFileLocator, %struct.GinMetaPageData, i32, i32, i32 }

@CritSectionCount = external global i32, align 4
@wal_level = external global i32, align 4
@LocalBufferBlockPointers = external global ptr, align 8
@BufferBlocks = external global ptr, align 8

; Function Attrs: inlinehint nounwind uwtable
define internal ptr @BufferGetBlock(i32 noundef %0) #2 {
  %2 = alloca ptr, align 8
  %3 = alloca i32, align 4
  store i32 %0, ptr %3, align 4
  %4 = load i32, ptr %3, align 4
  %5 = icmp slt i32 %4, 0
  br i1 %5, label %6, label %14

6:                                                ; preds = %1
  %7 = load ptr, ptr @LocalBufferBlockPointers, align 8
  %8 = load i32, ptr %3, align 4
  %9 = sub i32 0, %8
  %10 = sub i32 %9, 1
  %11 = sext i32 %10 to i64
  %12 = getelementptr inbounds ptr, ptr %7, i64 %11
  %13 = load ptr, ptr %12, align 8
  store ptr %13, ptr %2, align 8
  br label %21

14:                                               ; preds = %1
  %15 = load ptr, ptr @BufferBlocks, align 8
  %16 = load i32, ptr %3, align 4
  %17 = sub i32 %16, 1
  %18 = sext i32 %17 to i64
  %19 = mul i64 %18, 8192
  %20 = getelementptr inbounds nuw i8, ptr %15, i64 %19
  store ptr %20, ptr %2, align 8
  br label %21

21:                                               ; preds = %14, %6
  %22 = load ptr, ptr %2, align 8
  ret ptr %22
}

; Function Attrs: inlinehint nounwind uwtable
define internal void @PageSetLSN(ptr noundef %0, i64 noundef %1) #2 {
  %3 = alloca ptr, align 8
  %4 = alloca i64, align 8
  store ptr %0, ptr %3, align 8
  store i64 %1, ptr %4, align 8
  %5 = load i64, ptr %4, align 8
  %6 = lshr i64 %5, 32
  %7 = trunc i64 %6 to i32
  %8 = load ptr, ptr %3, align 8
  %9 = getelementptr inbounds nuw %struct.PageHeaderData, ptr %8, i32 0, i32 0
  %10 = getelementptr inbounds nuw %struct.PageXLogRecPtr, ptr %9, i32 0, i32 0
  store i32 %7, ptr %10, align 4
  %11 = load i64, ptr %4, align 8
  %12 = trunc i64 %11 to i32
  %13 = load ptr, ptr %3, align 8
  %14 = getelementptr inbounds nuw %struct.PageHeaderData, ptr %13, i32 0, i32 0
  %15 = getelementptr inbounds nuw %struct.PageXLogRecPtr, ptr %14, i32 0, i32 1
  store i32 %12, ptr %15, align 4
  ret void
}

; Function Attrs: inlinehint nounwind uwtable
define internal ptr @PageGetContents(ptr noundef %0) #2 {
  %2 = alloca ptr, align 8
  store ptr %0, ptr %2, align 8
  %3 = load ptr, ptr %2, align 8
  %4 = getelementptr inbounds nuw i8, ptr %3, i64 24
  ret ptr %4
}

; Function Attrs: inlinehint nounwind uwtable
define internal ptr @BufferGetPage(i32 noundef %0) #2 {
  %2 = alloca i32, align 4
  store i32 %0, ptr %2, align 4
  %3 = load i32, ptr %2, align 4
  %4 = call ptr @BufferGetBlock(i32 noundef %3)
  ret ptr %4
}

; Function Attrs: nounwind uwtable
define dso_local void @ginUpdateStats(ptr noundef %0, ptr noundef %1, i1 noundef zeroext %2) #0 {
  %4 = alloca ptr, align 8
  %5 = alloca ptr, align 8
  %6 = alloca i8, align 1
  %7 = alloca i32, align 4
  %8 = alloca ptr, align 8
  %9 = alloca ptr, align 8
  %10 = alloca i64, align 8
  %11 = alloca %struct.ginxlogUpdateMeta, align 8
  store ptr %0, ptr %4, align 8
  store ptr %1, ptr %5, align 8
  %12 = zext i1 %2 to i8
  store i8 %12, ptr %6, align 1
  call void @llvm.lifetime.start.p0(i64 4, ptr %7) #7
  call void @llvm.lifetime.start.p0(i64 8, ptr %8) #7
  call void @llvm.lifetime.start.p0(i64 8, ptr %9) #7
  %13 = load ptr, ptr %4, align 8
  %14 = call i32 @ReadBuffer(ptr noundef %13, i32 noundef 0)
  store i32 %14, ptr %7, align 4
  %15 = load i32, ptr %7, align 4
  call void @LockBuffer(i32 noundef %15, i32 noundef 2)
  %16 = load i32, ptr %7, align 4
  %17 = call ptr @BufferGetPage(i32 noundef %16)
  store ptr %17, ptr %8, align 8
  %18 = load ptr, ptr %8, align 8
  %19 = call ptr @PageGetContents(ptr noundef %18)
  store ptr %19, ptr %9, align 8
  %20 = load volatile i32, ptr @CritSectionCount, align 4
  %21 = add i32 %20, 1
  store volatile i32 %21, ptr @CritSectionCount, align 4
  %22 = load ptr, ptr %5, align 8
  %23 = getelementptr inbounds nuw %struct.GinStatsData, ptr %22, i32 0, i32 1
  %24 = load i32, ptr %23, align 4
  %25 = load ptr, ptr %9, align 8
  %26 = getelementptr inbounds nuw %struct.GinMetaPageData, ptr %25, i32 0, i32 5
  store i32 %24, ptr %26, align 8
  %27 = load ptr, ptr %5, align 8
  %28 = getelementptr inbounds nuw %struct.GinStatsData, ptr %27, i32 0, i32 2
  %29 = load i32, ptr %28, align 8
  %30 = load ptr, ptr %9, align 8
  %31 = getelementptr inbounds nuw %struct.GinMetaPageData, ptr %30, i32 0, i32 6
  store i32 %29, ptr %31, align 4
  %32 = load ptr, ptr %5, align 8
  %33 = getelementptr inbounds nuw %struct.GinStatsData, ptr %32, i32 0, i32 3
  %34 = load i32, ptr %33, align 4
  %35 = load ptr, ptr %9, align 8
  %36 = getelementptr inbounds nuw %struct.GinMetaPageData, ptr %35, i32 0, i32 7
  store i32 %34, ptr %36, align 8
  %37 = load ptr, ptr %5, align 8
  %38 = getelementptr inbounds nuw %struct.GinStatsData, ptr %37, i32 0, i32 4
  %39 = load i64, ptr %38, align 8
  %40 = load ptr, ptr %9, align 8
  %41 = getelementptr inbounds nuw %struct.GinMetaPageData, ptr %40, i32 0, i32 8
  store i64 %39, ptr %41, align 8
  %42 = load ptr, ptr %9, align 8
  %43 = getelementptr inbounds nuw i8, ptr %42, i64 56
  %44 = load ptr, ptr %8, align 8
  %45 = ptrtoint ptr %43 to i64
  %46 = ptrtoint ptr %44 to i64
  %47 = sub i64 %45, %46
  %48 = trunc i64 %47 to i16
  %49 = load ptr, ptr %8, align 8
  %50 = getelementptr inbounds nuw %struct.PageHeaderData, ptr %49, i32 0, i32 3
  store i16 %48, ptr %50, align 4
  %51 = load i32, ptr %7, align 4
  call void @MarkBufferDirty(i32 noundef %51)
  %52 = load ptr, ptr %4, align 8
  %53 = getelementptr inbounds nuw %struct.RelationData, ptr %52, i32 0, i32 13
  %54 = load ptr, ptr %53, align 8
  %55 = getelementptr inbounds nuw %struct.FormData_pg_class, ptr %54, i32 0, i32 15
  %56 = load i8, ptr %55, align 2
  %57 = sext i8 %56 to i32
  %58 = icmp eq i32 %57, 112
  br i1 %58, label %59, label %88

59:                                               ; preds = %3
  %60 = load i32, ptr @wal_level, align 4
  %61 = icmp sge i32 %60, 1
  br i1 %61, label %72, label %62

62:                                               ; preds = %59
  %63 = load ptr, ptr %4, align 8
  %64 = getelementptr inbounds nuw %struct.RelationData, ptr %63, i32 0, i32 9
  %65 = load i32, ptr %64, align 8
  %66 = icmp eq i32 %65, 0
  br i1 %66, label %67, label %88

67:                                               ; preds = %62
  %68 = load ptr, ptr %4, align 8
  %69 = getelementptr inbounds nuw %struct.RelationData, ptr %68, i32 0, i32 11
  %70 = load i32, ptr %69, align 8
  %71 = icmp eq i32 %70, 0
  br i1 %71, label %72, label %88

72:                                               ; preds = %67, %59
  %73 = load i8, ptr %6, align 1, !range !4, !noundef !5
  %74 = trunc i8 %73 to i1
  br i1 %74, label %88, label %75

75:                                               ; preds = %72
  call void @llvm.lifetime.start.p0(i64 8, ptr %10) #7
  call void @llvm.lifetime.start.p0(i64 88, ptr %11) #7
  %76 = getelementptr inbounds nuw %struct.ginxlogUpdateMeta, ptr %11, i32 0, i32 0
  %77 = load ptr, ptr %4, align 8
  %78 = getelementptr inbounds nuw %struct.RelationData, ptr %77, i32 0, i32 0
  call void @llvm.memcpy.p0.p0.i64(ptr align 8 %76, ptr align 8 %78, i64 12, i1 false)
  %79 = getelementptr inbounds nuw %struct.ginxlogUpdateMeta, ptr %11, i32 0, i32 4
  store i32 0, ptr %79, align 8
  %80 = getelementptr inbounds nuw %struct.ginxlogUpdateMeta, ptr %11, i32 0, i32 2
  store i32 -1, ptr %80, align 8
  %81 = getelementptr inbounds nuw %struct.ginxlogUpdateMeta, ptr %11, i32 0, i32 3
  store i32 -1, ptr %81, align 4
  %82 = getelementptr inbounds nuw %struct.ginxlogUpdateMeta, ptr %11, i32 0, i32 1
  %83 = load ptr, ptr %9, align 8
  call void @llvm.memcpy.p0.p0.i64(ptr align 8 %82, ptr align 8 %83, i64 56, i1 false)
  call void @XLogBeginInsert()
  call void @XLogRegisterData(ptr noundef %11, i32 noundef 88)
  %84 = load i32, ptr %7, align 4
  call void @XLogRegisterBuffer(i8 noundef zeroext 0, i32 noundef %84, i8 noundef zeroext 14)
  %85 = call i64 @XLogInsert(i8 noundef zeroext 13, i8 noundef zeroext 96)
  store i64 %85, ptr %10, align 8
  %86 = load ptr, ptr %8, align 8
  %87 = load i64, ptr %10, align 8
  call void @PageSetLSN(ptr noundef %86, i64 noundef %87)
  call void @llvm.lifetime.end.p0(i64 88, ptr %11) #7
  call void @llvm.lifetime.end.p0(i64 8, ptr %10) #7
  br label %88

88:                                               ; preds = %75, %72, %67, %62, %3
  %89 = load i32, ptr %7, align 4
  call void @UnlockReleaseBuffer(i32 noundef %89)
  br label %90

90:                                               ; preds = %88
  %91 = load volatile i32, ptr @CritSectionCount, align 4
  %92 = add i32 %91, -1
  store volatile i32 %92, ptr @CritSectionCount, align 4
  br label %93

93:                                               ; preds = %90
  br label %94

94:                                               ; preds = %93
  call void @llvm.lifetime.end.p0(i64 8, ptr %9) #7
  call void @llvm.lifetime.end.p0(i64 8, ptr %8) #7
  call void @llvm.lifetime.end.p0(i64 4, ptr %7) #7
  ret void
}