; Function Attrs: nounwind uwtable
define dso_local void @ginUpdateStats(ptr noundef %0, ptr noundef readonly captures(none) %1, i1 noundef zeroext %2) local_unnamed_addr #0 {
  %4 = alloca %struct.ginxlogUpdateMeta, align 8
  %5 = tail call i32 @ReadBuffer(ptr noundef %0, i32 noundef 0) #7
  tail call void @LockBuffer(i32 noundef %5, i32 noundef 2) #7
  %6 = icmp slt i32 %5, 0
  br i1 %6, label %7, label %13

7:                                                ; preds = %3
  %8 = load ptr, ptr @LocalBufferBlockPointers, align 8
  %9 = xor i32 %5, -1
  %10 = zext nneg i32 %9 to i64
  %11 = getelementptr inbounds nuw ptr, ptr %8, i64 %10
  %12 = load ptr, ptr %11, align 8
  br label %BufferGetPage.exit

13:                                               ; preds = %3
  %14 = load ptr, ptr @BufferBlocks, align 8
  %15 = add nsw i32 %5, -1
  %16 = sext i32 %15 to i64
  %17 = shl nsw i64 %16, 13
  %18 = getelementptr inbounds nuw i8, ptr %14, i64 %17
  br label %BufferGetPage.exit

BufferGetPage.exit:                               ; preds = %7, %13
  %.0.i.i = phi ptr [ %12, %7 ], [ %18, %13 ]
  %19 = getelementptr inbounds nuw i8, ptr %.0.i.i, i64 24
  %20 = load volatile i32, ptr @CritSectionCount, align 4
  %21 = add i32 %20, 1
  store volatile i32 %21, ptr @CritSectionCount, align 4
  %22 = getelementptr inbounds nuw i8, ptr %1, i64 4
  %23 = load i32, ptr %22, align 4
  %24 = getelementptr inbounds nuw i8, ptr %.0.i.i, i64 48
  store i32 %23, ptr %24, align 8
  %25 = getelementptr inbounds nuw i8, ptr %1, i64 8
  %26 = load i32, ptr %25, align 8
  %27 = getelementptr inbounds nuw i8, ptr %.0.i.i, i64 52
  store i32 %26, ptr %27, align 4
  %28 = getelementptr inbounds nuw i8, ptr %1, i64 12
  %29 = load i32, ptr %28, align 4
  %30 = getelementptr inbounds nuw i8, ptr %.0.i.i, i64 56
  store i32 %29, ptr %30, align 8
  %31 = getelementptr inbounds nuw i8, ptr %1, i64 16
  %32 = load i64, ptr %31, align 8
  %33 = getelementptr inbounds nuw i8, ptr %.0.i.i, i64 64
  store i64 %32, ptr %33, align 8
  %34 = getelementptr inbounds nuw i8, ptr %.0.i.i, i64 12
  store i16 80, ptr %34, align 4
  tail call void @MarkBufferDirty(i32 noundef %5) #7
  %35 = getelementptr inbounds nuw i8, ptr %0, i64 56
  %36 = load ptr, ptr %35, align 8
  %37 = getelementptr inbounds nuw i8, ptr %36, i64 114
  %38 = load i8, ptr %37, align 2
  %39 = icmp eq i8 %38, 112
  br i1 %39, label %40, label %62

40:                                               ; preds = %BufferGetPage.exit
  %41 = load i32, ptr @wal_level, align 4
  %42 = icmp sgt i32 %41, 0
  br i1 %42, label %51, label %43

43:                                               ; preds = %40
  %44 = getelementptr inbounds nuw i8, ptr %0, i64 40
  %45 = load i32, ptr %44, align 8
  %46 = icmp eq i32 %45, 0
  br i1 %46, label %47, label %62

47:                                               ; preds = %43
  %48 = getelementptr inbounds nuw i8, ptr %0, i64 48
  %49 = load i32, ptr %48, align 8
  %50 = icmp ne i32 %49, 0
  %brmerge = or i1 %2, %50
  br i1 %brmerge, label %62, label %52

51:                                               ; preds = %40
  br i1 %2, label %62, label %52

52:                                               ; preds = %47, %51
  call void @llvm.lifetime.start.p0(i64 88, ptr nonnull %4) #7
  call void @llvm.memcpy.p0.p0.i64(ptr noundef nonnull align 8 dereferenceable(12) %4, ptr noundef nonnull align 8 dereferenceable(12) %0, i64 12, i1 false)
  %53 = getelementptr inbounds nuw i8, ptr %4, i64 80
  store i32 0, ptr %53, align 8
  %54 = getelementptr inbounds nuw i8, ptr %4, i64 72
  store i32 -1, ptr %54, align 8
  %55 = getelementptr inbounds nuw i8, ptr %4, i64 76
  store i32 -1, ptr %55, align 4
  %56 = getelementptr inbounds nuw i8, ptr %4, i64 16
  call void @llvm.memcpy.p0.p0.i64(ptr noundef nonnull align 8 dereferenceable(56) %56, ptr noundef nonnull align 8 dereferenceable(56) %19, i64 56, i1 false)
  tail call void @XLogBeginInsert() #7
  call void @XLogRegisterData(ptr noundef nonnull %4, i32 noundef 88) #7
  call void @XLogRegisterBuffer(i8 noundef zeroext 0, i32 noundef %5, i8 noundef zeroext 14) #7
  %57 = call i64 @XLogInsert(i8 noundef zeroext 13, i8 noundef zeroext 96) #7
  %58 = lshr i64 %57, 32
  %59 = trunc nuw i64 %58 to i32
  store i32 %59, ptr %.0.i.i, align 4
  %60 = trunc i64 %57 to i32
  %61 = getelementptr inbounds nuw i8, ptr %.0.i.i, i64 4
  store i32 %60, ptr %61, align 4
  call void @llvm.lifetime.end.p0(i64 88, ptr nonnull %4) #7
  br label %62

62:                                               ; preds = %47, %52, %51, %43, %BufferGetPage.exit
  call void @UnlockReleaseBuffer(i32 noundef %5) #7
  %63 = load volatile i32, ptr @CritSectionCount, align 4
  %64 = add i32 %63, -1
  store volatile i32 %64, ptr @CritSectionCount, align 4
  ret void
}